#include <math.h>
#include <stdio.h>
#include <stdlib.h>
#include <string.h>

char sen[256];
int len,i;
int del();
int main()
{
gets(sen);
len=strlen(sen);
for (i=0;i<len;i++)
{
if (sen[i]==32)
del();
}
for (i=0;i<len;i++)
{
	if (sen[i]!=126)
	printf("%c",sen[i]);
}
return 0;
}
int del()
{
	int j;
	for (j=i+1;j<len;j++)
	{
		if (sen[j]==32)
		sen[j]=126;
		else 
		return 0;
	}
	return 0;
}